; Function Attrs: mustprogress nofree norecurse nosync nounwind willreturn memory(readwrite, inaccessiblemem: none) uwtable
define noundef range(i32 -2, 1) i32 @_ZN12duckdb_miniz15mz_deflateResetEPNS_11mz_stream_sE(ptr noundef captures(address_is_null) %0) local_unnamed_addr #10 {
  %.not = icmp eq ptr %0, null
  br i1 %.not, label %55, label %2

2:                                                ; preds = %1
  %3 = getelementptr inbounds nuw i8, ptr %0, i64 56
  %4 = load ptr, ptr %3, align 8, !tbaa !26
  %.not9 = icmp eq ptr %4, null
  br i1 %.not9, label %55, label %5

5:                                                ; preds = %2
  %6 = getelementptr inbounds nuw i8, ptr %0, i64 64
  %7 = load ptr, ptr %6, align 8, !tbaa !23
  %.not10 = icmp eq ptr %7, null
  br i1 %.not10, label %55, label %8

8:                                                ; preds = %5
  %9 = getelementptr inbounds nuw i8, ptr %0, i64 72
  %10 = load ptr, ptr %9, align 8, !tbaa !24
  %.not11 = icmp eq ptr %10, null
  br i1 %.not11, label %55, label %11

11:                                               ; preds = %8
  %12 = getelementptr inbounds nuw i8, ptr %0, i64 40
  store i64 0, ptr %12, align 8, !tbaa !48
  %13 = getelementptr inbounds nuw i8, ptr %0, i64 16
  store i64 0, ptr %13, align 8, !tbaa !22
  %14 = getelementptr inbounds nuw i8, ptr %4, i64 16
  %15 = load i32, ptr %14, align 8, !tbaa !27
  %16 = and i32 %15, 4095
  %17 = trunc nuw nsw i32 %16 to i16
  %.lhs.trunc.i = add nuw nsw i16 %17, 2
  %18 = udiv i16 %.lhs.trunc.i, 3
  %narrow.i = add nuw nsw i16 %18, 1
  %19 = zext nneg i16 %narrow.i to i32
  %20 = getelementptr inbounds nuw i8, ptr %4, i64 20
  tail call void @llvm.memset.p0.i64(ptr noundef nonnull align 8 dereferenceable(16) %4, i8 0, i64 16, i1 false)
  store i32 %19, ptr %20, align 4, !tbaa !10
  %21 = lshr i32 %15, 14
  %.lobit.i = and i32 %21, 1
  %22 = getelementptr inbounds nuw i8, ptr %4, i64 28
  store i32 %.lobit.i, ptr %22, align 4, !tbaa !32
  %23 = lshr i32 %16, 2
  %24 = trunc nuw nsw i32 %23 to i16
  %.lhs.trunc51.i = add nuw nsw i16 %24, 2
  %25 = udiv i16 %.lhs.trunc51.i, 3
  %narrow53.i = add nuw nsw i16 %25, 1
  %26 = zext nneg i16 %narrow53.i to i32
  %27 = getelementptr inbounds nuw i8, ptr %4, i64 24
  store i32 %26, ptr %27, align 4, !tbaa !10
  %28 = and i32 %15, 32768
  %.not.i = icmp eq i32 %28, 0
  br i1 %.not.i, label %29, label %31

29:                                               ; preds = %11
  %30 = getelementptr inbounds nuw i8, ptr %4, i64 168618
  tail call void @llvm.memset.p0.i64(ptr noundef nonnull align 2 dereferenceable(65536) %30, i8 0, i64 65536, i1 false)
  br label %31

31:                                               ; preds = %29, %11
  %32 = getelementptr inbounds nuw i8, ptr %4, i64 84
  %33 = getelementptr inbounds nuw i8, ptr %4, i64 44
  store i32 0, ptr %33, align 4, !tbaa !33
  %34 = getelementptr inbounds nuw i8, ptr %4, i64 40
  store i32 0, ptr %34, align 8, !tbaa !34
  %35 = getelementptr inbounds nuw i8, ptr %4, i64 36
  store i32 0, ptr %35, align 4, !tbaa !35
  %36 = getelementptr inbounds nuw i8, ptr %4, i64 112
  %37 = getelementptr inbounds nuw i8, ptr %4, i64 37546
  %38 = getelementptr inbounds nuw i8, ptr %4, i64 37547
  %39 = getelementptr inbounds nuw i8, ptr %4, i64 48
  tail call void @llvm.memset.p0.i64(ptr noundef nonnull align 4 dereferenceable(16) %32, i8 0, i64 16, i1 false)
  tail call void @llvm.memset.p0.i64(ptr noundef nonnull align 8 dereferenceable(20) %36, i8 0, i64 20, i1 false)
  store ptr %38, ptr %39, align 8, !tbaa !36
  %40 = getelementptr inbounds nuw i8, ptr %4, i64 56
  store ptr %37, ptr %40, align 8, !tbaa !37
  %41 = getelementptr inbounds nuw i8, ptr %4, i64 80
  store i32 8, ptr %41, align 8, !tbaa !38
  %42 = getelementptr inbounds nuw i8, ptr %4, i64 234154
  %43 = getelementptr inbounds nuw i8, ptr %4, i64 64
  store ptr %42, ptr %43, align 8, !tbaa !39
  %44 = getelementptr inbounds nuw i8, ptr %4, i64 72
  store ptr %42, ptr %44, align 8, !tbaa !40
  %45 = getelementptr inbounds nuw i8, ptr %4, i64 132
  store i32 0, ptr %45, align 4, !tbaa !41
  %46 = getelementptr inbounds nuw i8, ptr %4, i64 108
  store i32 0, ptr %46, align 4, !tbaa !42
  %47 = getelementptr inbounds nuw i8, ptr %4, i64 104
  store i32 0, ptr %47, align 8, !tbaa !43
  %48 = getelementptr inbounds nuw i8, ptr %4, i64 100
  store i32 0, ptr %48, align 4, !tbaa !44
  %49 = getelementptr inbounds nuw i8, ptr %4, i64 32
  store i32 1, ptr %49, align 8, !tbaa !45
  %50 = getelementptr inbounds nuw i8, ptr %4, i64 136
  %51 = getelementptr inbounds nuw i8, ptr %4, i64 176
  tail call void @llvm.memset.p0.i64(ptr noundef nonnull align 8 dereferenceable(36) %50, i8 0, i64 36, i1 false)
  tail call void @llvm.memset.p0.i64(ptr noundef nonnull align 8 dereferenceable(24) %51, i8 0, i64 24, i1 false)
  br i1 %.not.i, label %52, label %_ZN12duckdb_miniz10tdefl_initEPNS_16tdefl_compressorEPFiPKviPvES4_i.exit

52:                                               ; preds = %31
  %53 = getelementptr inbounds nuw i8, ptr %4, i64 200
  tail call void @llvm.memset.p0.i64(ptr noundef nonnull align 8 dereferenceable(33025) %53, i8 0, i64 33025, i1 false)
  br label %_ZN12duckdb_miniz10tdefl_initEPNS_16tdefl_compressorEPFiPKviPvES4_i.exit

_ZN12duckdb_miniz10tdefl_initEPNS_16tdefl_compressorEPFiPKviPvES4_i.exit: ; preds = %31, %52
  %54 = getelementptr inbounds nuw i8, ptr %4, i64 33226
  tail call void @llvm.memset.p0.i64(ptr noundef nonnull align 2 dereferenceable(640) %54, i8 0, i64 640, i1 false)
  br label %55

55:                                               ; preds = %1, %2, %5, %8, %_ZN12duckdb_miniz10tdefl_initEPNS_16tdefl_compressorEPFiPKviPvES4_i.exit
  %.0 = phi i32 [ 0, %_ZN12duckdb_miniz10tdefl_initEPNS_16tdefl_compressorEPFiPKviPvES4_i.exit ], [ -2, %8 ], [ -2, %5 ], [ -2, %2 ], [ -2, %1 ]
  ret i32 %.0
}